(lp0
(S'images/B00ID1W8GM.jpg'
p1
I0
tp2
a(S'images/B00E693HAQ.jpg'
p3
I0
tp4
a(S'images/B00GT33JFA.jpg'
p5
I0
tp6
a(S'images/B00ED47EIK.jpg'
p7
I0
tp8
a(S'images/B00EECQY3C.jpg'
p9
I0
tp10
a(S'images/B00G06CHFE.jpg'
p11
I0
tp12
a(S'images/B00EFXCB8W.jpg'
p13
I0
tp14
a(S'images/B00FGIBTCE.jpg'
p15
I0
tp16
a(S'images/B00E9XDT0M.jpg'
p17
I0
tp18
a(S'images/B00DHFV91Y.jpg'
p19
I0
tp20
a(S'images/B00HA3DJMG.jpg'
p21
I0
tp22
a(S'images/B00FECEP6O.jpg'
p23
I0
tp24
a(S'images/B00FRR1YG0.jpg'
p25
I0
tp26
a(S'images/B00DCCPD5K.jpg'
p27
I0
tp28
a(S'images/B00FZQCZZW.jpg'
p29
I0
tp30
a(S'images/B00GKWPZMU.jpg'
p31
I0
tp32
a(S'images/B00EFXBWP0.jpg'
p33
I0
tp34
a(S'images/B00EGXU372.jpg'
p35
I0
tp36
a(S'images/B00IBGW5C6.jpg'
p37
I0
tp38
a(S'images/B00DWG3DOY.jpg'
p39
I0
tp40
a(S'images/B00DVEHM76.jpg'
p41
I0
tp42
a(S'images/B00HNNI2Y8.jpg'
p43
I0
tp44
a(S'images/B00IP1HKG8.jpg'
p45
I0
tp46
a(S'images/B00I84KMJE.jpg'
p47
I0
tp48
a(S'images/B00J7VJ3Y2.jpg'
p49
I0
tp50
a(S'images/B00DXZXC7W.jpg'
p51
I0
tp52
a(S'images/B00J9CE5HO.jpg'
p53
I0
tp54
a(S'images/B00EHQJPPO.jpg'
p55
I0
tp56
a(S'images/B00DD0CU98.jpg'
p57
I0
tp58
a(S'images/B00IA3YLKY.jpg'
p59
I0
tp60
a(S'images/B00H7Z2HAW.jpg'
p61
I0
tp62
a(S'images/B00KH906L2.jpg'
p63
I0
tp64
a(S'images/B00F4714IG.jpg'
p65
I0
tp66
a(S'images/B00K5ZRUT4.jpg'
p67
I0
tp68
a(S'images/B00DMD47IS.jpg'
p69
I0
tp70
a(S'images/B00E1FI7HS.jpg'
p71
I0
tp72
a(S'images/B00J0ZX3N2.jpg'
p73
I0
tp74
a(S'images/B00EZPTORQ.jpg'
p75
I0
tp76
a(S'images/B00HY7IPJA.jpg'
p77
I0
tp78
a(S'images/B00ESKPVUC.jpg'
p79
I0
tp80
a(S'images/B00DS58QI2.jpg'
p81
I0
tp82
a(S'images/B00G4BRATS.jpg'
p83
I0
tp84
a(S'images/B00JBK04BK.jpg'
p85
I0
tp86
a(S'images/B00F6KGA12.jpg'
p87
I0
tp88
a(S'images/B00EA996PC.jpg'
p89
I0
tp90
a(S'images/B00GP2833I.jpg'
p91
I0
tp92
a(S'images/B00E77WND4.jpg'
p93
I0
tp94
a(S'images/B00F40QQZY.jpg'
p95
I0
tp96
a(S'images/B00HAZOSWY.jpg'
p97
I0
tp98
a(S'images/B00HFLJGIY.jpg'
p99
I0
tp100
a(S'images/B00DGUQNYI.jpg'
p101
I0
tp102
a(S'images/B00G3JT4WW.jpg'
p103
I0
tp104
a(S'images/B00HSIZ0OI.jpg'
p105
I0
tp106
a(S'images/B00F52E3JW.jpg'
p107
I0
tp108
a(S'images/B00E3I72W4.jpg'
p109
I0
tp110
a(S'images/B00EFXCADS.jpg'
p111
I0
tp112
a(S'images/B00F62A3IG.jpg'
p113
I0
tp114
a(S'images/B00GNWJP6E.jpg'
p115
I0
tp116
a(S'images/B00FXAABZG.jpg'
p117
I0
tp118
a(S'images/B00JGPFUK0.jpg'
p119
I0
tp120
a(S'images/B00FSZKUV6.jpg'
p121
I0
tp122
a(S'images/B00IUOU6MA.jpg'
p123
I0
tp124
a(S'images/B00EKLQ95U.jpg'
p125
I0
tp126
a(S'images/B00JG1NIQC.jpg'
p127
I0
tp128
a(S'images/B00GTEX65M.jpg'
p129
I0
tp130
a(S'images/B00F0UFUHI.jpg'
p131
I0
tp132
a(S'images/B00K5ZRUZ8.jpg'
p133
I0
tp134
a(S'images/B00FXWNNW2.jpg'
p135
I0
tp136
a(S'images/B00JBK02Z8.jpg'
p137
I0
tp138
a(S'images/B00ELOJDHM.jpg'
p139
I0
tp140
a(S'images/B00E3I76VQ.jpg'
p141
I0
tp142
a(S'images/B00GTEX6UC.jpg'
p143
I0
tp144
a(S'images/B00F52UTQI.jpg'
p145
I0
tp146
a(S'images/B00E8PXTNS.jpg'
p147
I0
tp148
a(S'images/B00IMZOLMS.jpg'
p149
I0
tp150
a(S'images/B00GCRHSB4.jpg'
p151
I0
tp152
a(S'images/B00GEJMTMI.jpg'
p153
I0
tp154
a(S'images/B00GSPM8YC.jpg'
p155
I0
tp156
a(S'images/B00G7URVU4.jpg'
p157
I0
tp158
a(S'images/B00DZF2JLA.jpg'
p159
I0
tp160
a(S'images/B00HYPC6JC.jpg'
p161
I0
tp162
a(S'images/B00IDD545C.jpg'
p163
I0
tp164
a(S'images/B00FP03GLA.jpg'
p165
I0
tp166
a(S'images/B00DT1ONZ0.jpg'
p167
I0
tp168
a(S'images/B00FWVGY48.jpg'
p169
I0
tp170
a(S'images/B00EB2003U.jpg'
p171
I0
tp172
a(S'images/B00ECUTFFU.jpg'
p173
I0
tp174
a(S'images/B00KHYWR2I.jpg'
p175
I0
tp176
a(S'images/B00IOW0ZI8.jpg'
p177
I0
tp178
a(S'images/B00GXW435W.jpg'
p179
I0
tp180
a(S'images/B00F9VPIXO.jpg'
p181
I0
tp182
a(S'images/B00F52PYYU.jpg'
p183
I0
tp184
a(S'images/B00DM1GHO2.jpg'
p185
I0
tp186
a(S'images/B00FJ1HFGC.jpg'
p187
I0
tp188
a(S'images/B00GM2K474.jpg'
p189
I0
tp190
a(S'images/B00DEEC3UO.jpg'
p191
I0
tp192
a(S'images/B00EB200QW.jpg'
p193
I0
tp194
a(S'images/B00FCKHROK.jpg'
p195
I0
tp196
a(S'images/B00I51I1RK.jpg'
p197
I0
tp198
a(S'images/B00FN4HB0A.jpg'
p199
I0
tp200
a(S'images/B00GC93XYS.jpg'
p201
I0
tp202
a(S'images/B00EHQJR0C.jpg'
p203
I0
tp204
a(S'images/B00DE4P2FW.jpg'
p205
I0
tp206
a(S'images/B00FORG69I.jpg'
p207
I0
tp208
a(S'images/B00JAXUTGI.jpg'
p209
I0
tp210
a(S'images/B00H0PWF06.jpg'
p211
I0
tp212
a(S'images/B00I149O6I.jpg'
p213
I0
tp214
a(S'images/B00G7URSF2.jpg'
p215
I0
tp216
a(S'images/B00EO5WTC4.jpg'
p217
I0
tp218
a(S'images/B00GAPU4KK.jpg'
p219
I0
tp220
a(S'images/B00HA41WRE.jpg'
p221
I0
tp222
a(S'images/B00HQC9FIS.jpg'
p223
I0
tp224
a(S'images/B00JBE6MV2.jpg'
p225
I0
tp226
a(S'images/B00HG9MQO6.jpg'
p227
I0
tp228
a(S'images/B00JXLGEE8.jpg'
p229
I0
tp230
a(S'images/B00H3U26LG.jpg'
p231
I0
tp232
a(S'images/B00DNR3HP2.jpg'
p233
I0
tp234
a(S'images/B00H57ZUE2.jpg'
p235
I0
tp236
a(S'images/B00EDHVJ56.jpg'
p237
I0
tp238
a(S'images/B00EIQVZX8.jpg'
p239
I0
tp240
a(S'images/B00FIEC9YI.jpg'
p241
I0
tp242
a(S'images/B00EDHVJBU.jpg'
p243
I0
tp244
a(S'images/B00EZPTNTA.jpg'
p245
I0
tp246
a(S'images/B00HV053J0.jpg'
p247
I0
tp248
a(S'images/B00F1CDNU6.jpg'
p249
I0
tp250
a(S'images/B00I97YU48.jpg'
p251
I0
tp252
a(S'images/B00HTLXHCG.jpg'
p253
I0
tp254
a(S'images/B00GA9WNTQ.jpg'
p255
I0
tp256
a(S'images/B00DOQR82U.jpg'
p257
I0
tp258
a(S'images/B00DT77GHG.jpg'
p259
I0
tp260
a(S'images/B00EFXC99S.jpg'
p261
I0
tp262
a(S'images/B00EVB2JAI.jpg'
p263
I0
tp264
a(S'images/B00F95Y8RW.jpg'
p265
I0
tp266
a(S'images/B00HPR7K8Q.jpg'
p267
I0
tp268
a(S'images/B00F5BLIZU.jpg'
p269
I0
tp270
a(S'images/B00I9L4BYS.jpg'
p271
I0
tp272
a(S'images/B00FJC672E.jpg'
p273
I0
tp274
a(S'images/B00GIV743G.jpg'
p275
I0
tp276
a(S'images/B00EZPTO76.jpg'
p277
I0
tp278
a(S'images/B00I8R0OFI.jpg'
p279
I0
tp280
a(S'images/B00J8NTWX6.jpg'
p281
I0
tp282
a(S'images/B00HYPXII0.jpg'
p283
I0
tp284
a(S'images/B00FIS1LU2.jpg'
p285
I0
tp286
a(S'images/B00EGP1JSC.jpg'
p287
I0
tp288
a(S'images/B00E6DMKXM.jpg'
p289
I0
tp290
a(S'images/B00FQJ28D2.jpg'
p291
I0
tp292
a(S'images/B00DQYPAOS.jpg'
p293
I0
tp294
a(S'images/B00DPPOI5U.jpg'
p295
I0
tp296
a(S'images/B00GHTLWK0.jpg'
p297
I0
tp298
a(S'images/B00IULVXIO.jpg'
p299
I0
tp300
a(S'images/B00FQMAQLA.jpg'
p301
I0
tp302
a(S'images/B00H8Z4BYQ.jpg'
p303
I0
tp304
a(S'images/B00GB87PW6.jpg'
p305
I0
tp306
a(S'images/B00DT3FBVS.jpg'
p307
I0
tp308
a(S'images/B00FIECA42.jpg'
p309
I0
tp310
a(S'images/B00H8Z2G7U.jpg'
p311
I0
tp312
a(S'images/B00DVMFVKS.jpg'
p313
I0
tp314
a(S'images/B00IOA6U0M.jpg'
p315
I0
tp316
a(S'images/B00DQKJIP4.jpg'
p317
I0
tp318
a(S'images/B00K31DRMY.jpg'
p319
I0
tp320
a(S'images/B00F0GU9FK.jpg'
p321
I0
tp322
a(S'images/B00F8K22V2.jpg'
p323
I0
tp324
a(S'images/B00FAMX46A.jpg'
p325
I0
tp326
a(S'images/B00EFXC9ES.jpg'
p327
I0
tp328
a(S'images/B00F6KH1WO.jpg'
p329
I0
tp330
a(S'images/B00HBUWOME.jpg'
p331
I0
tp332
a(S'images/B00FFDY12A.jpg'
p333
I0
tp334
a(S'images/B00GU5TESI.jpg'
p335
I0
tp336
a(S'images/B00GKBE1KS.jpg'
p337
I0
tp338
a(S'images/B00DJWJFW0.jpg'
p339
I0
tp340
a(S'images/B00DV901EW.jpg'
p341
I0
tp342
a(S'images/B00DJ3ZZ4G.jpg'
p343
I0
tp344
a(S'images/B00FHT6NS2.jpg'
p345
I0
tp346
a(S'images/B00GF2MC9E.jpg'
p347
I0
tp348
a(S'images/B00EDSM5I0.jpg'
p349
I0
tp350
a(S'images/B00I1M0FZ4.jpg'
p351
I0
tp352
a(S'images/B00E0FS19S.jpg'
p353
I0
tp354
a(S'images/B00G0MOI6E.jpg'
p355
I0
tp356
a(S'images/B00E1FHXBE.jpg'
p357
I0
tp358
a(S'images/B00FX411P6.jpg'
p359
I0
tp360
a(S'images/B00DEP3AVY.jpg'
p361
I0
tp362
a(S'images/B00J8UZT54.jpg'
p363
I0
tp364
a(S'images/B00E86CUYQ.jpg'
p365
I0
tp366
a(S'images/B00DHG0NNI.jpg'
p367
I0
tp368
a(S'images/B00GVA2KCY.jpg'
p369
I0
tp370
a(S'images/B00L5OHCPQ.jpg'
p371
I0
tp372
a(S'images/B00HQP8Z18.jpg'
p373
I0
tp374
a(S'images/B00EO5WVKY.jpg'
p375
I0
tp376
a(S'images/B00HEU44DS.jpg'
p377
I0
tp378
a(S'images/B00HJ18I16.jpg'
p379
I0
tp380
a(S'images/B00J5L51UY.jpg'
p381
I0
tp382
a(S'images/B00I51I2E2.jpg'
p383
I0
tp384
a(S'images/B00GJW5V66.jpg'
p385
I0
tp386
a(S'images/B00GOTBN9I.jpg'
p387
I0
tp388
a(S'images/B00K01YNCU.jpg'
p389
I0
tp390
a(S'images/B00F9VPH5S.jpg'
p391
I0
tp392
a(S'images/B00FVHCO9W.jpg'
p393
I0
tp394
a(S'images/B00JJ5FIYA.jpg'
p395
I0
tp396
a(S'images/B00H3U2CIS.jpg'
p397
I0
tp398
a(S'images/B00LN5PCXG.jpg'
p399
I0
tp400
a(S'images/B00IOHKIKS.jpg'
p401
I0
tp402
a(S'images/B00I1LM5SK.jpg'
p403
I0
tp404
a(S'images/B00HQZGZ38.jpg'
p405
I0
tp406
a(S'images/B00GXW3XTY.jpg'
p407
I0
tp408
a(S'images/B00FAPA55A.jpg'
p409
I0
tp410
a(S'images/B00HZAFHWE.jpg'
p411
I0
tp412
a(S'images/B00E9XBHOC.jpg'
p413
I0
tp414
a(S'images/B00DJR11VI.jpg'
p415
I0
tp416
a(S'images/B00ICUQ3JW.jpg'
p417
I0
tp418
a(S'images/B00HFA5UTY.jpg'
p419
I0
tp420
a(S'images/B00G3D3BM2.jpg'
p421
I0
tp422
a(S'images/B00G6T5TZ0.jpg'
p423
I0
tp424
a(S'images/B00D9VQRIG.jpg'
p425
I0
tp426
a(S'images/B00DIHING0.jpg'
p427
I0
tp428
a(S'images/B00DQ2K7E8.jpg'
p429
I0
tp430
a(S'images/B00ISFTX2K.jpg'
p431
I0
tp432
a(S'images/B00HJ2OYPY.jpg'
p433
I0
tp434
a(S'images/B00FXAAAMK.jpg'
p435
I0
tp436
a(S'images/B00E3I7FYE.jpg'
p437
I0
tp438
a(S'images/B00DH85QJC.jpg'
p439
I0
tp440
a(S'images/B00FB4PMWG.jpg'
p441
I0
tp442
a(S'images/B00DFI8ED4.jpg'
p443
I0
tp444
a(S'images/B00F5XWBY0.jpg'
p445
I0
tp446
a(S'images/B00H8Z52XU.jpg'
p447
I0
tp448
a(S'images/B00I2WNESI.jpg'
p449
I0
tp450
a(S'images/B00ICI6O2U.jpg'
p451
I0
tp452
a(S'images/B00DHG2D54.jpg'
p453
I0
tp454
a(S'images/B00HS0P6OK.jpg'
p455
I0
tp456
a(S'images/B00J8UZJPE.jpg'
p457
I0
tp458
a(S'images/B00EHD7U4U.jpg'
p459
I0
tp460
a(S'images/B00DH36KW4.jpg'
p461
I0
tp462
a(S'images/B00F2KC8EE.jpg'
p463
I0
tp464
a(S'images/B00GEWRTR0.jpg'
p465
I0
tp466
a(S'images/B00DUIOFJQ.jpg'
p467
I0
tp468
a(S'images/B00FI349CE.jpg'
p469
I0
tp470
a(S'images/B00I4QTJMM.jpg'
p471
I0
tp472
a(S'images/B00IK52R30.jpg'
p473
I0
tp474
a(S'images/B00GK71VEQ.jpg'
p475
I0
tp476
a(S'images/B00EFXC4UW.jpg'
p477
I0
tp478
a(S'images/B00I3OCC5G.jpg'
p479
I0
tp480
a(S'images/B00I9ZEUT0.jpg'
p481
I0
tp482
a(S'images/B00EEY89X8.jpg'
p483
I0
tp484
a(S'images/B00DY3U8MU.jpg'
p485
I0
tp486
a(S'images/B00F9SQFHK.jpg'
p487
I0
tp488
a(S'images/B00F52LJWQ.jpg'
p489
I0
tp490
a(S'images/B00JBK02EY.jpg'
p491
I0
tp492
a(S'images/B00EXUI3XO.jpg'
p493
I0
tp494
a(S'images/B00K5ZRUEY.jpg'
p495
I0
tp496
a(S'images/B00F5UG4TG.jpg'
p497
I0
tp498
a(S'images/B00F0TMMKM.jpg'
p499
I0
tp500
a(S'images/B00EWJNJHG.jpg'
p501
I0
tp502
a(S'images/B00E8RBDJS.jpg'
p503
I0
tp504
a(S'images/B00DD0VEJU.jpg'
p505
I0
tp506
a(S'images/B00DNCLQDW.jpg'
p507
I0
tp508
a(S'images/B00HYPXIIA.jpg'
p509
I0
tp510
a(S'images/B00EDHVIXY.jpg'
p511
I0
tp512
a(S'images/B00J8UZEX6.jpg'
p513
I0
tp514
a(S'images/B00EUJXJBO.jpg'
p515
I0
tp516
a(S'images/B00EXVYCJW.jpg'
p517
I0
tp518
a(S'images/B00ICD65CO.jpg'
p519
I0
tp520
a(S'images/B00EUGAEMO.jpg'
p521
I0
tp522
a(S'images/B00EZ7ZSU6.jpg'
p523
I0
tp524
a(S'images/B00ESUIU7I.jpg'
p525
I0
tp526
a(S'images/B00F2OJS6Q.jpg'
p527
I0
tp528
a(S'images/B00GGLZZW0.jpg'
p529
I0
tp530
a(S'images/B00GYZH71A.jpg'
p531
I0
tp532
a(S'images/B00DM1GJIG.jpg'
p533
I0
tp534
a(S'images/B00DZGHIJW.jpg'
p535
I0
tp536
a(S'images/B00FRWI648.jpg'
p537
I0
tp538
a(S'images/B00JJIX8GW.jpg'
p539
I0
tp540
a(S'images/B00JJIX8FS.jpg'
p541
I0
tp542
a(S'images/B00ENVX6SK.jpg'
p543
I0
tp544
a(S'images/B00EHJ2I46.jpg'
p545
I0
tp546
a(S'images/B00ELP2UVW.jpg'
p547
I0
tp548
a(S'images/B00H3BVG5W.jpg'
p549
I0
tp550
a(S'images/B00H1AY0SA.jpg'
p551
I0
tp552
a(S'images/B00FG0ACZC.jpg'
p553
I0
tp554
a(S'images/B00F61A5SK.jpg'
p555
I0
tp556
a(S'images/B00EQFIBTW.jpg'
p557
I0
tp558
a(S'images/B00DW2GB4W.jpg'
p559
I0
tp560
a(S'images/B00FA4TWKA.jpg'
p561
I0
tp562
a(S'images/B00GIVASDE.jpg'
p563
I0
tp564
a(S'images/B00DGU30GM.jpg'
p565
I0
tp566
a(S'images/B00IIA9NDO.jpg'
p567
I0
tp568
a(S'images/B00GSDVKX4.jpg'
p569
I0
tp570
a(S'images/B00GJXVZ24.jpg'
p571
I0
tp572
a(S'images/B00K5ZRTCM.jpg'
p573
I0
tp574
a(S'images/B00H5E0KO0.jpg'
p575
I0
tp576
a(S'images/B00DURYMJA.jpg'
p577
I0
tp578
a(S'images/B00HTMDEH8.jpg'
p579
I0
tp580
a(S'images/B00EJC0S66.jpg'
p581
I0
tp582
a(S'images/B00EKS33FC.jpg'
p583
I0
tp584
a(S'images/B00ER5DRWW.jpg'
p585
I0
tp586
a(S'images/B00EQ2K4JU.jpg'
p587
I0
tp588
a(S'images/B00G0KSPVU.jpg'
p589
I0
tp590
a(S'images/B00HYAKJO6.jpg'
p591
I0
tp592
a(S'images/B00EEBDBR0.jpg'
p593
I0
tp594
a(S'images/B00DYRBJC4.jpg'
p595
I0
tp596
a(S'images/B00HJKK38I.jpg'
p597
I0
tp598
a(S'images/B00EFXC7GI.jpg'
p599
I0
tp600
a(S'images/B00GYZOB1O.jpg'
p601
I0
tp602
a(S'images/B00H917F4W.jpg'
p603
I0
tp604
a(S'images/B00DY4PD7Y.jpg'
p605
I0
tp606
a(S'images/B00EMI7MIY.jpg'
p607
I0
tp608
a(S'images/B00L1FUOIG.jpg'
p609
I0
tp610
a(S'images/B00IULVVSQ.jpg'
p611
I0
tp612
a(S'images/B00F52RKT2.jpg'
p613
I0
tp614
a(S'images/B00F63LM8A.jpg'
p615
I0
tp616
a(S'images/B00JDKJQV2.jpg'
p617
I0
tp618
a(S'images/B00EFXC650.jpg'
p619
I0
tp620
a(S'images/B00I1L2350.jpg'
p621
I0
tp622
a(S'images/B00HNGRAX4.jpg'
p623
I0
tp624
a(S'images/B00ES8KY8S.jpg'
p625
I0
tp626
a(S'images/B00FFHI39S.jpg'
p627
I0
tp628
a(S'images/B00K5ZRSP0.jpg'
p629
I0
tp630
a(S'images/B00DP5F6OC.jpg'
p631
I0
tp632
a(S'images/B00F0E456G.jpg'
p633
I0
tp634
a(S'images/B00E1L78N6.jpg'
p635
I0
tp636
a(S'images/B00FR73KGW.jpg'
p637
I0
tp638
a(S'images/B00IAEHFH4.jpg'
p639
I0
tp640
a(S'images/B00K7K9VLW.jpg'
p641
I0
tp642
a(S'images/B00FDHLKVS.jpg'
p643
I0
tp644
a(S'images/B00E9FYC06.jpg'
p645
I0
tp646
a(S'images/B00GWKKX0O.jpg'
p647
I0
tp648
a(S'images/B00EYQVRRG.jpg'
p649
I0
tp650
a(S'images/B00FEX6CFK.jpg'
p651
I0
tp652
a(S'images/B00HO5JF7S.jpg'
p653
I0
tp654
a(S'images/B00JBLY34S.jpg'
p655
I0
tp656
a(S'images/B00H8XJ5EO.jpg'
p657
I0
tp658
a(S'images/B00HXE4CZ0.jpg'
p659
I0
tp660
a(S'images/B00IOVKLPQ.jpg'
p661
I0
tp662
a(S'images/B00GB87OA4.jpg'
p663
I0
tp664
a(S'images/B00FEOLDYY.jpg'
p665
I0
tp666
a(S'images/B00HPLOE18.jpg'
p667
I0
tp668
a(S'images/B00F5EKKME.jpg'
p669
I0
tp670
a(S'images/B00IK3IUGA.jpg'
p671
I0
tp672
a(S'images/B00DHFFRWG.jpg'
p673
I0
tp674
a(S'images/B00F52O5DG.jpg'
p675
I0
tp676
a(S'images/B00E7LJWES.jpg'
p677
I0
tp678
a(S'images/B00J8UF8PA.jpg'
p679
I0
tp680
a(S'images/B00F5UFSNY.jpg'
p681
I0
tp682
a(S'images/B00GYZO33K.jpg'
p683
I0
tp684
a(S'images/B00GYZNUVG.jpg'
p685
I0
tp686
a(S'images/B00F59LT74.jpg'
p687
I0
tp688
a(S'images/B00FABT5VO.jpg'
p689
I0
tp690
a(S'images/B00ILOEP3A.jpg'
p691
I0
tp692
a(S'images/B00GYZO4CK.jpg'
p693
I0
tp694
a(S'images/B00FJISZAA.jpg'
p695
I0
tp696
a(S'images/B00LHXZ6VM.jpg'
p697
I0
tp698
a(S'images/B00FF59JLG.jpg'
p699
I0
tp700
a(S'images/B00F5XV24A.jpg'
p701
I0
tp702
a(S'images/B00FCXOM9A.jpg'
p703
I0
tp704
a(S'images/B00GWTU4R2.jpg'
p705
I0
tp706
a(S'images/B00G75ZCB4.jpg'
p707
I0
tp708
a(S'images/B00EIRRCR0.jpg'
p709
I0
tp710
a(S'images/B00DMAM82S.jpg'
p711
I0
tp712
a(S'images/B00ISKSH7C.jpg'
p713
I0
tp714
a(S'images/B00EIRRD8I.jpg'
p715
I0
tp716
a(S'images/B00HRO32J8.jpg'
p717
I0
tp718
a(S'images/B00FQRL40W.jpg'
p719
I0
tp720
a(S'images/B00DYRBHXA.jpg'
p721
I0
tp722
a(S'images/B00DKEX5AU.jpg'
p723
I0
tp724
a(S'images/B00EFK8W92.jpg'
p725
I0
tp726
a(S'images/B00F62A2PK.jpg'
p727
I0
tp728
a(S'images/B00E0FRU0O.jpg'
p729
I0
tp730
a(S'images/B00E1QMBX8.jpg'
p731
I0
tp732
a(S'images/B00DGF09WU.jpg'
p733
I0
tp734
a(S'images/B00EW67XV2.jpg'
p735
I0
tp736
a(S'images/B00HVJPBBQ.jpg'
p737
I0
tp738
a(S'images/B00EUMFC2A.jpg'
p739
I0
tp740
a(S'images/B00GMGZZ0G.jpg'
p741
I0
tp742
a(S'images/B00I45GT3A.jpg'
p743
I0
tp744
a(S'images/B00GYZQGF8.jpg'
p745
I0
tp746
a(S'images/B00EVOD3MI.jpg'
p747
I0
tp748
a(S'images/B00H30M4OK.jpg'
p749
I0
tp750
a(S'images/B00GPUFAB8.jpg'
p751
I0
tp752
a(S'images/B00ENFALFW.jpg'
p753
I0
tp754
a(S'images/B00DW2GB6U.jpg'
p755
I0
tp756
a(S'images/B00GIV0RGM.jpg'
p757
I0
tp758
a(S'images/B00GSDVKZW.jpg'
p759
I0
tp760
a(S'images/B00K92JHX0.jpg'
p761
I0
tp762
a(S'images/B00E97SAOI.jpg'
p763
I0
tp764
a(S'images/B00EFXC8BM.jpg'
p765
I0
tp766
a(S'images/B00FGDTLBA.jpg'
p767
I0
tp768
a(S'images/B00FKVYEWO.jpg'
p769
I0
tp770
a(S'images/B00HBKSMBG.jpg'
p771
I0
tp772
a(S'images/B00HC3YW8E.jpg'
p773
I0
tp774
a(S'images/B00IRMHGQ4.jpg'
p775
I0
tp776
a(S'images/B00HVH8YJO.jpg'
p777
I0
tp778
a(S'images/B00GYZNJ4E.jpg'
p779
I0
tp780
a(S'images/B00FJVE1NC.jpg'
p781
I0
tp782
a(S'images/B00EVB5478.jpg'
p783
I0
tp784
a(S'images/B00I0HWVTI.jpg'
p785
I0
tp786
a(S'images/B00K1QLAXY.jpg'
p787
I0
tp788
a(S'images/B00F1JV9X2.jpg'
p789
I0
tp790
a(S'images/B00GXW465Y.jpg'
p791
I0
tp792
a(S'images/B00FT2TAGY.jpg'
p793
I0
tp794
a(S'images/B00EA07V4O.jpg'
p795
I0
tp796
a(S'images/B00D9VQRJA.jpg'
p797
I0
tp798
a(S'images/B00IJOMUXY.jpg'
p799
I0
tp800
a(S'images/B00DH85SD6.jpg'
p801
I0
tp802
a(S'images/B00HXC8YLU.jpg'
p803
I0
tp804
a(S'images/B00F9HVPFS.jpg'
p805
I0
tp806
a(S'images/B00DOS0PM8.jpg'
p807
I0
tp808
a(S'images/B00GSXWKR4.jpg'
p809
I0
tp810
a(S'images/B00JWKAZNG.jpg'
p811
I0
tp812
a(S'images/B00F06CKOS.jpg'
p813
I0
tp814
a(S'images/B00FQ2BS5S.jpg'
p815
I0
tp816
a(S'images/B00IKI16LG.jpg'
p817
I0
tp818
a(S'images/B00DURXYJY.jpg'
p819
I0
tp820
a(S'images/B00FY4NWZ2.jpg'
p821
I0
tp822
a(S'images/B00EVODA3K.jpg'
p823
I0
tp824
a(S'images/B00DW2GIGI.jpg'
p825
I0
tp826
a(S'images/B00GD91XB2.jpg'
p827
I0
tp828
a(S'images/B07K3835BD.jpg'
p829
I0
tp830
a(S'images/B00G3D3DVQ.jpg'
p831
I0
tp832
a(S'images/B00EKVXDWM.jpg'
p833
I0
tp834
a(S'images/B00EEEE7IO.jpg'
p835
I0
tp836
a(S'images/B00I2NZ95S.jpg'
p837
I0
tp838
a(S'images/B00GYZNNCW.jpg'
p839
I0
tp840
a(S'images/B00EV6P3B0.jpg'
p841
I0
tp842
a(S'images/B00DO5V3W2.jpg'
p843
I0
tp844
a(S'images/B00H8QASGK.jpg'
p845
I0
tp846
a(S'images/B00FQRL2KE.jpg'
p847
I0
tp848
a(S'images/B00EK3J06I.jpg'
p849
I0
tp850
a(S'images/B00F6J7H0G.jpg'
p851
I0
tp852
a(S'images/B00FLDIBWU.jpg'
p853
I0
tp854
a(S'images/B00FS6MLZ8.jpg'
p855
I0
tp856
a(S'images/B00EFXC65U.jpg'
p857
I0
tp858
a(S'images/B00F62A3UE.jpg'
p859
I0
tp860
a(S'images/B00JLATAMY.jpg'
p861
I0
tp862
a(S'images/B00GB9K11W.jpg'
p863
I0
tp864
a(S'images/B00H20FUPQ.jpg'
p865
I0
tp866
a(S'images/B00FPW5FVC.jpg'
p867
I0
tp868
a(S'images/B00GLOPQD0.jpg'
p869
I0
tp870
a(S'images/B00E1O4JE4.jpg'
p871
I0
tp872
a(S'images/B00EU7NVKU.jpg'
p873
I0
tp874
a(S'images/B00IJN0PW8.jpg'
p875
I0
tp876
a(S'images/B00KOJ3WEI.jpg'
p877
I0
tp878
a(S'images/B00FRAWGAU.jpg'
p879
I0
tp880
a(S'images/B00EFXC9DY.jpg'
p881
I0
tp882
a(S'images/B00GD2EBCC.jpg'
p883
I0
tp884
a(S'images/B00FI5XHSE.jpg'
p885
I0
tp886
a(S'images/B00HRXZ3QY.jpg'
p887
I0
tp888
a(S'images/B00G9FFFTG.jpg'
p889
I0
tp890
a(S'images/B00IK6T7TQ.jpg'
p891
I0
tp892
a(S'images/B00FJXSLAE.jpg'
p893
I0
tp894
a(S'images/B00E0HOYD8.jpg'
p895
I0
tp896
a(S'images/B00I47ARL8.jpg'
p897
I0
tp898
a(S'images/B00H03NZB6.jpg'
p899
I0
tp900
a(S'images/B00IYIOHF4.jpg'
p901
I0
tp902
a(S'images/B00EA2PD60.jpg'
p903
I0
tp904
a(S'images/B00FWMXTXG.jpg'
p905
I0
tp906
a(S'images/B00H4FJC2G.jpg'
p907
I0
tp908
a(S'images/B00K5ZRTFO.jpg'
p909
I0
tp910
a(S'images/B00K0KPYM4.jpg'
p911
I0
tp912
a(S'images/B00FOC75FW.jpg'
p913
I0
tp914
a(S'images/B00JG1MZLQ.jpg'
p915
I0
tp916
a(S'images/B00FKZLI8S.jpg'
p917
I0
tp918
a(S'images/B00ICS6C0E.jpg'
p919
I0
tp920
a(S'images/B00I4CDJ22.jpg'
p921
I0
tp922
a(S'images/B00F6PRSMW.jpg'
p923
I0
tp924
a(S'images/B00DWGT71M.jpg'
p925
I0
tp926
a(S'images/B00FDTJF04.jpg'
p927
I0
tp928
a(S'images/B00GNE12RM.jpg'
p929
I0
tp930
a(S'images/B00FFHJH4I.jpg'
p931
I0
tp932
a(S'images/B00GOEJHX2.jpg'
p933
I0
tp934
a(S'images/B00GUX8TEU.jpg'
p935
I0
tp936
a(S'images/B00F63PSKI.jpg'
p937
I0
tp938
a(S'images/B00I4QTJRC.jpg'
p939
I0
tp940
a(S'images/B00DZ42F10.jpg'
p941
I0
tp942
a(S'images/B00IRRIJQA.jpg'
p943
I0
tp944
a(S'images/B00ESHE49Y.jpg'
p945
I0
tp946
a(S'images/B00IDHF78M.jpg'
p947
I0
tp948
a(S'images/B00DV075AY.jpg'
p949
I0
tp950
a(S'images/B00HZMPHI6.jpg'
p951
I0
tp952
a(S'images/B00E2OKNXO.jpg'
p953
I0
tp954
a(S'images/B00HSRO47I.jpg'
p955
I0
tp956
a(S'images/B00IJGVZQA.jpg'
p957
I0
tp958
a(S'images/B00J0V3AZW.jpg'
p959
I0
tp960
a(S'images/B00ESM9ONA.jpg'
p961
I0
tp962
a(S'images/B00HS7PYHC.jpg'
p963
I0
tp964
a(S'images/B00GBDE55G.jpg'
p965
I0
tp966
a(S'images/B00DB20M70.jpg'
p967
I0
tp968
a(S'images/B00F1CDM2U.jpg'
p969
I0
tp970
a(S'images/B00HNWLYSK.jpg'
p971
I0
tp972
a(S'images/B00F93D6UE.jpg'
p973
I0
tp974
a(S'images/B00KOZ3S4G.jpg'
p975
I0
tp976
a(S'images/B00EO3WHB4.jpg'
p977
I0
tp978
a(S'images/B00EXFSEJ2.jpg'
p979
I0
tp980
a(S'images/B00DURZ410.jpg'
p981
I0
tp982
a(S'images/B00FB45YI8.jpg'
p983
I0
tp984
a(S'images/B00E1L7836.jpg'
p985
I0
tp986
a(S'images/B00IL7FM3Y.jpg'
p987
I0
tp988
a(S'images/B00GD1RVQG.jpg'
p989
I0
tp990
a(S'images/B00J4O74KC.jpg'
p991
I0
tp992
a(S'images/B00H6P0872.jpg'
p993
I0
tp994
a(S'images/B00HNGO9YM.jpg'
p995
I0
tp996
a(S'images/B00IV2RLUQ.jpg'
p997
I0
tp998
a(S'images/B00HIYA4F2.jpg'
p999
I0
tp1000
a(S'images/B00GOEOXHM.jpg'
p1001
I0
tp1002
a(S'images/B00E0I71V4.jpg'
p1003
I0
tp1004
a(S'images/B00GAXAW7W.jpg'
p1005
I0
tp1006
a(S'images/B00ITK3GZE.jpg'
p1007
I0
tp1008
a(S'images/B00ICUQ4IW.jpg'
p1009
I0
tp1010
a(S'images/B00E3I74Y0.jpg'
p1011
I0
tp1012
a(S'images/B00G1YKHES.jpg'
p1013
I0
tp1014
a(S'images/B00GJ2E8F6.jpg'
p1015
I0
tp1016
a(S'images/B00FSK7JXI.jpg'
p1017
I0
tp1018
a(S'images/B00E6XNQGM.jpg'
p1019
I0
tp1020
a(S'images/B00GYZNOB2.jpg'
p1021
I0
tp1022
a(S'images/B00H91L7Q4.jpg'
p1023
I0
tp1024
a(S'images/B00G0Y90X8.jpg'
p1025
I0
tp1026
a(S'images/B00F70H40M.jpg'
p1027
I0
tp1028
a(S'images/B00E2SFYES.jpg'
p1029
I0
tp1030
a(S'images/B00H3ZO8MG.jpg'
p1031
I0
tp1032
a(S'images/B00E1FI5FC.jpg'
p1033
I0
tp1034
a(S'images/B00FIU1UWO.jpg'
p1035
I0
tp1036
a(S'images/B00FSDC5YS.jpg'
p1037
I0
tp1038
a(S'images/B00GDQFN70.jpg'
p1039
I0
tp1040
a(S'images/B00IU2VB6W.jpg'
p1041
I0
tp1042
a(S'images/B00H4ISHME.jpg'
p1043
I0
tp1044
a(S'images/B00FPKCY6I.jpg'
p1045
I0
tp1046
a(S'images/B00HNICPLO.jpg'
p1047
I0
tp1048
a(S'images/B00IV5EVII.jpg'
p1049
I0
tp1050
a(S'images/B00HY86FXW.jpg'
p1051
I0
tp1052
a(S'images/B00IJSB76Q.jpg'
p1053
I0
tp1054
a(S'images/B00GGIUFGE.jpg'
p1055
I0
tp1056
a(S'images/B00H03NTMG.jpg'
p1057
I0
tp1058
a(S'images/B00DT1XUGI.jpg'
p1059
I0
tp1060
a(S'images/B00DHO4ID6.jpg'
p1061
I0
tp1062
a(S'images/B00DEWX7UQ.jpg'
p1063
I0
tp1064
a(S'images/B00JC5NFW4.jpg'
p1065
I0
tp1066
a(S'images/B00IP3TN48.jpg'
p1067
I0
tp1068
a(S'images/B00EWHJWLU.jpg'
p1069
I0
tp1070
a(S'images/B00DW529YU.jpg'
p1071
I0
tp1072
a(S'images/B00EFXC78G.jpg'
p1073
I0
tp1074
a(S'images/B00JBAVNZQ.jpg'
p1075
I0
tp1076
a(S'images/B00E0I71OG.jpg'
p1077
I0
tp1078
a(S'images/B00HYOGTR8.jpg'
p1079
I0
tp1080
a(S'images/B00DXAS00Q.jpg'
p1081
I0
tp1082
a(S'images/B00HCDB3GI.jpg'
p1083
I0
tp1084
a(S'images/B00EEBE124.jpg'
p1085
I0
tp1086
a(S'images/B00D9JSSS0.jpg'
p1087
I0
tp1088
a(S'images/B00I2ICEYM.jpg'
p1089
I0
tp1090
a(S'images/B00HS73V5E.jpg'
p1091
I0
tp1092
a(S'images/B00DTWN9U4.jpg'
p1093
I0
tp1094
a(S'images/B00HRAXUH6.jpg'
p1095
I0
tp1096
a(S'images/B00G6T5R02.jpg'
p1097
I0
tp1098
a(S'images/B00GJ40FKQ.jpg'
p1099
I0
tp1100
a(S'images/B00H9LLFJ8.jpg'
p1101
I0
tp1102
a(S'images/B00EUFQE4M.jpg'
p1103
I0
tp1104
a(S'images/B00EV21PN4.jpg'
p1105
I0
tp1106
a(S'images/B00DBXNNY8.jpg'
p1107
I0
tp1108
a(S'images/B00ETAHD16.jpg'
p1109
I0
tp1110
a(S'images/B00FSBS59E.jpg'
p1111
I0
tp1112
a(S'images/B00GMP5Q60.jpg'
p1113
I0
tp1114
a(S'images/B00DW2GB38.jpg'
p1115
I0
tp1116
a(S'images/B00JLAT6J6.jpg'
p1117
I0
tp1118
a(S'images/B00IX8VQ68.jpg'
p1119
I0
tp1120
a(S'images/B00K5ZRVHU.jpg'
p1121
I0
tp1122
a(S'images/B00HNGOY5Q.jpg'
p1123
I0
tp1124
a(S'images/B00KJ1K59Q.jpg'
p1125
I0
tp1126
a(S'images/B00H2T13AS.jpg'
p1127
I0
tp1128
a(S'images/B00EB94CKK.jpg'
p1129
I0
tp1130
a(S'images/B00DYRBG9A.jpg'
p1131
I0
tp1132
a(S'images/B00HF4CZGQ.jpg'
p1133
I0
tp1134
a(S'images/B00JXO51P8.jpg'
p1135
I0
tp1136
a(S'images/B00HLNXTPM.jpg'
p1137
I0
tp1138
a(S'images/B07K3BY22F.jpg'
p1139
I0
tp1140
a(S'images/B00DF1536C.jpg'
p1141
I0
tp1142
a(S'images/B00IBGW3LE.jpg'
p1143
I0
tp1144
a(S'images/B00DEEC3VI.jpg'
p1145
I0
tp1146
a(S'images/B00HXAV7KM.jpg'
p1147
I0
tp1148
a(S'images/B00F9P2YSC.jpg'
p1149
I0
tp1150
a.